; ModuleID = '2/385.c'
source_filename = "2/385.c"
target datalayout = "e-m:e-p270:32:32-p271:32:32-p272:64:64-i64:64-f80:128-n8:16:32:64-S128"
target triple = "x86_64-pc-linux-gnu"

%struct.anon = type { i32, [26 x i8] }

@.str = private unnamed_addr constant [3 x i8] c"%d\00", align 1
@.str.1 = private unnamed_addr constant [5 x i8] c"%d%s\00", align 1
@book = common dso_local global [999 x %struct.anon] zeroinitializer, align 16
@.str.2 = private unnamed_addr constant [7 x i8] c"%c\0A%d\0A\00", align 1
@.str.3 = private unnamed_addr constant [4 x i8] c"%d\0A\00", align 1
@test = common dso_local global [1 x %struct.anon] zeroinitializer, align 16

; Function Attrs: noinline nounwind uwtable
define dso_local i32 @main(i32 %0, i8** %1) #0 {
  %3 = alloca i32, align 4
  %4 = alloca i32, align 4
  %5 = alloca i8**, align 8
  %6 = alloca i32, align 4
  %7 = alloca i32, align 4
  %8 = alloca i32, align 4
  %9 = alloca i32, align 4
  %10 = alloca i32, align 4
  %11 = alloca i8, align 1
  %12 = alloca i8, align 1
  store i32 0, i32* %3, align 4
  store i32 %0, i32* %4, align 4
  store i8** %1, i8*** %5, align 8
  %13 = call i32 (i8*, ...) @__isoc99_scanf(i8* getelementptr inbounds ([3 x i8], [3 x i8]* @.str, i64 0, i64 0), i32* %6)
  store i32 0, i32* %7, align 4
  br label %14

14:                                               ; preds = %29, %2
  %15 = load i32, i32* %7, align 4
  %16 = load i32, i32* %6, align 4
  %17 = icmp slt i32 %15, %16
  br i1 %17, label %18, label %32

18:                                               ; preds = %14
  %19 = load i32, i32* %7, align 4
  %20 = sext i32 %19 to i64
  %21 = getelementptr inbounds [999 x %struct.anon], [999 x %struct.anon]* @book, i64 0, i64 %20
  %22 = getelementptr inbounds %struct.anon, %struct.anon* %21, i32 0, i32 0
  %23 = load i32, i32* %7, align 4
  %24 = sext i32 %23 to i64
  %25 = getelementptr inbounds [999 x %struct.anon], [999 x %struct.anon]* @book, i64 0, i64 %24
  %26 = getelementptr inbounds %struct.anon, %struct.anon* %25, i32 0, i32 1
  %27 = getelementptr inbounds [26 x i8], [26 x i8]* %26, i64 0, i64 0
  %28 = call i32 (i8*, ...) @__isoc99_scanf(i8* getelementptr inbounds ([5 x i8], [5 x i8]* @.str.1, i64 0, i64 0), i32* %22, i8* %27)
  br label %29

29:                                               ; preds = %18
  %30 = load i32, i32* %7, align 4
  %31 = add nsw i32 %30, 1
  store i32 %31, i32* %7, align 4
  br label %14

32:                                               ; preds = %14
  store i8 65, i8* %11, align 1
  store i32 0, i32* %9, align 4
  store i8 65, i8* %12, align 1
  br label %33

33:                                               ; preds = %32, %85
  store i32 0, i32* %10, align 4
  store i32 0, i32* %7, align 4
  br label %34

34:                                               ; preds = %70, %33
  %35 = load i32, i32* %7, align 4
  %36 = load i32, i32* %6, align 4
  %37 = icmp slt i32 %35, %36
  br i1 %37, label %38, label %73

38:                                               ; preds = %34
  store i32 0, i32* %8, align 4
  br label %39

39:                                               ; preds = %66, %38
  %40 = load i32, i32* %8, align 4
  %41 = sext i32 %40 to i64
  %42 = load i32, i32* %7, align 4
  %43 = sext i32 %42 to i64
  %44 = getelementptr inbounds [999 x %struct.anon], [999 x %struct.anon]* @book, i64 0, i64 %43
  %45 = getelementptr inbounds %struct.anon, %struct.anon* %44, i32 0, i32 1
  %46 = getelementptr inbounds [26 x i8], [26 x i8]* %45, i64 0, i64 0
  %47 = call i64 @strlen(i8* %46) #3
  %48 = icmp ult i64 %41, %47
  br i1 %48, label %49, label %69

49:                                               ; preds = %39
  %50 = load i32, i32* %7, align 4
  %51 = sext i32 %50 to i64
  %52 = getelementptr inbounds [999 x %struct.anon], [999 x %struct.anon]* @book, i64 0, i64 %51
  %53 = getelementptr inbounds %struct.anon, %struct.anon* %52, i32 0, i32 1
  %54 = load i32, i32* %8, align 4
  %55 = sext i32 %54 to i64
  %56 = getelementptr inbounds [26 x i8], [26 x i8]* %53, i64 0, i64 %55
  %57 = load i8, i8* %56, align 1
  %58 = sext i8 %57 to i32
  %59 = load i8, i8* %11, align 1
  %60 = sext i8 %59 to i32
  %61 = icmp eq i32 %58, %60
  br i1 %61, label %62, label %65

62:                                               ; preds = %49
  %63 = load i32, i32* %10, align 4
  %64 = add nsw i32 %63, 1
  store i32 %64, i32* %10, align 4
  br label %65

65:                                               ; preds = %62, %49
  br label %66

66:                                               ; preds = %65
  %67 = load i32, i32* %8, align 4
  %68 = add nsw i32 %67, 1
  store i32 %68, i32* %8, align 4
  br label %39

69:                                               ; preds = %39
  br label %70

70:                                               ; preds = %69
  %71 = load i32, i32* %7, align 4
  %72 = add nsw i32 %71, 1
  store i32 %72, i32* %7, align 4
  br label %34

73:                                               ; preds = %34
  %74 = load i32, i32* %10, align 4
  %75 = load i32, i32* %9, align 4
  %76 = icmp sgt i32 %74, %75
  br i1 %76, label %77, label %80

77:                                               ; preds = %73
  %78 = load i32, i32* %10, align 4
  store i32 %78, i32* %9, align 4
  %79 = load i8, i8* %11, align 1
  store i8 %79, i8* %12, align 1
  br label %80

80:                                               ; preds = %77, %73
  %81 = load i8, i8* %11, align 1
  %82 = sext i8 %81 to i32
  %83 = icmp eq i32 %82, 90
  br i1 %83, label %84, label %85

84:                                               ; preds = %80
  br label %88

85:                                               ; preds = %80
  %86 = load i8, i8* %11, align 1
  %87 = add i8 %86, 1
  store i8 %87, i8* %11, align 1
  br label %33

88:                                               ; preds = %84
  %89 = load i8, i8* %12, align 1
  %90 = sext i8 %89 to i32
  %91 = load i32, i32* %9, align 4
  %92 = call i32 (i8*, ...) @printf(i8* getelementptr inbounds ([7 x i8], [7 x i8]* @.str.2, i64 0, i64 0), i32 %90, i32 %91)
  store i32 0, i32* %7, align 4
  br label %93

93:                                               ; preds = %133, %88
  %94 = load i32, i32* %7, align 4
  %95 = load i32, i32* %6, align 4
  %96 = icmp slt i32 %94, %95
  br i1 %96, label %97, label %136

97:                                               ; preds = %93
  store i32 0, i32* %8, align 4
  br label %98

98:                                               ; preds = %129, %97
  %99 = load i32, i32* %8, align 4
  %100 = sext i32 %99 to i64
  %101 = load i32, i32* %7, align 4
  %102 = sext i32 %101 to i64
  %103 = getelementptr inbounds [999 x %struct.anon], [999 x %struct.anon]* @book, i64 0, i64 %102
  %104 = getelementptr inbounds %struct.anon, %struct.anon* %103, i32 0, i32 1
  %105 = getelementptr inbounds [26 x i8], [26 x i8]* %104, i64 0, i64 0
  %106 = call i64 @strlen(i8* %105) #3
  %107 = icmp ult i64 %100, %106
  br i1 %107, label %108, label %132

108:                                              ; preds = %98
  %109 = load i32, i32* %7, align 4
  %110 = sext i32 %109 to i64
  %111 = getelementptr inbounds [999 x %struct.anon], [999 x %struct.anon]* @book, i64 0, i64 %110
  %112 = getelementptr inbounds %struct.anon, %struct.anon* %111, i32 0, i32 1
  %113 = load i32, i32* %8, align 4
  %114 = sext i32 %113 to i64
  %115 = getelementptr inbounds [26 x i8], [26 x i8]* %112, i64 0, i64 %114
  %116 = load i8, i8* %115, align 1
  %117 = sext i8 %116 to i32
  %118 = load i8, i8* %12, align 1
  %119 = sext i8 %118 to i32
  %120 = icmp eq i32 %117, %119
  br i1 %120, label %121, label %128

121:                                              ; preds = %108
  %122 = load i32, i32* %7, align 4
  %123 = sext i32 %122 to i64
  %124 = getelementptr inbounds [999 x %struct.anon], [999 x %struct.anon]* @book, i64 0, i64 %123
  %125 = getelementptr inbounds %struct.anon, %struct.anon* %124, i32 0, i32 0
  %126 = load i32, i32* %125, align 16
  %127 = call i32 (i8*, ...) @printf(i8* getelementptr inbounds ([4 x i8], [4 x i8]* @.str.3, i64 0, i64 0), i32 %126)
  br label %128

128:                                              ; preds = %121, %108
  br label %129

129:                                              ; preds = %128
  %130 = load i32, i32* %8, align 4
  %131 = add nsw i32 %130, 1
  store i32 %131, i32* %8, align 4
  br label %98

132:                                              ; preds = %98
  br label %133

133:                                              ; preds = %132
  %134 = load i32, i32* %7, align 4
  %135 = add nsw i32 %134, 1
  store i32 %135, i32* %7, align 4
  br label %93

136:                                              ; preds = %93
  ret i32 0
}

declare dso_local i32 @__isoc99_scanf(i8*, ...) #1

; Function Attrs: nounwind readonly
declare dso_local i64 @strlen(i8*) #2

declare dso_local i32 @printf(i8*, ...) #1


!llvm.module.flags = !{!0}
!llvm.ident = !{!1}

!0 = !{i32 1, !"wchar_size", i32 4}
!1 = !{!"clang version 10.0.0-4ubuntu1 "}
